; Function Attrs: nounwind uwtable
define internal fastcc void @_jumbleIntoClause(ptr noundef %0, ptr noundef nonnull readonly captures(none) %1) unnamed_addr #0 {
  %3 = getelementptr inbounds nuw i8, ptr %1, i64 8
  %4 = load ptr, ptr %3, align 8
  tail call fastcc void @_jumbleNode(ptr noundef %0, ptr noundef %4)
  %5 = getelementptr inbounds nuw i8, ptr %1, i64 16
  %6 = load ptr, ptr %5, align 8
  tail call fastcc void @_jumbleNode(ptr noundef %0, ptr noundef %6)
  %7 = getelementptr inbounds nuw i8, ptr %1, i64 24
  %8 = load ptr, ptr %7, align 8
  %.not = icmp eq ptr %8, null
  br i1 %.not, label %25, label %9

9:                                                ; preds = %2
  %10 = tail call i64 @strlen(ptr noundef nonnull dereferenceable(1) %8) #8
  %11 = add i64 %10, 1
  %12 = load ptr, ptr %0, align 8
  %13 = getelementptr inbounds nuw i8, ptr %0, i64 8
  %14 = load i64, ptr %13, align 8
  %.not23.i = icmp eq i64 %11, 0
  br i1 %.not23.i, label %AppendJumble.exit, label %.lr.ph.i

.lr.ph.i:                                         ; preds = %9, %18
  %.026.i = phi ptr [ %23, %18 ], [ %8, %9 ]
  %.02125.i = phi i64 [ %24, %18 ], [ %11, %9 ]
  %.02224.i = phi i64 [ %22, %18 ], [ %14, %9 ]
  %15 = icmp ugt i64 %.02224.i, 1023
  br i1 %15, label %16, label %18

16:                                               ; preds = %.lr.ph.i
  %17 = tail call i64 @hash_bytes_extended(ptr noundef %12, i32 noundef 1024, i64 noundef 0) #9
  store i64 %17, ptr %12, align 1
  br label %18

18:                                               ; preds = %16, %.lr.ph.i
  %.1.i = phi i64 [ 8, %16 ], [ %.02224.i, %.lr.ph.i ]
  %19 = sub nuw nsw i64 1024, %.1.i
  %20 = tail call i64 @llvm.umin.i64(i64 %.02125.i, i64 %19)
  %21 = getelementptr inbounds nuw i8, ptr %12, i64 %.1.i
  tail call void @llvm.memcpy.p0.p0.i64(ptr noundef nonnull align 1 dereferenceable(1) %21, ptr noundef nonnull align 1 dereferenceable(1) %.026.i, i64 %20, i1 false)
  %22 = add nuw nsw i64 %20, %.1.i
  %23 = getelementptr inbounds nuw i8, ptr %.026.i, i64 %20
  %24 = sub i64 %.02125.i, %20
  %.not.i = icmp eq i64 %24, 0
  br i1 %.not.i, label %AppendJumble.exit, label %.lr.ph.i, !llvm.loop !7

AppendJumble.exit:                                ; preds = %18, %9
  %.022.lcssa.i = phi i64 [ %14, %9 ], [ %22, %18 ]
  store i64 %.022.lcssa.i, ptr %13, align 8
  br label %25

25:                                               ; preds = %AppendJumble.exit, %2
  %26 = getelementptr inbounds nuw i8, ptr %1, i64 32
  %27 = load ptr, ptr %26, align 8
  tail call fastcc void @_jumbleNode(ptr noundef %0, ptr noundef %27)
  %28 = getelementptr inbounds nuw i8, ptr %1, i64 40
  %29 = load ptr, ptr %0, align 8
  %30 = getelementptr inbounds nuw i8, ptr %0, i64 8
  %31 = load i64, ptr %30, align 8
  br label %.lr.ph.i21

.lr.ph.i21:                                       ; preds = %35, %25
  %.026.i22 = phi ptr [ %40, %35 ], [ %28, %25 ]
  %.02125.i23 = phi i64 [ %41, %35 ], [ 4, %25 ]
  %.02224.i24 = phi i64 [ %39, %35 ], [ %31, %25 ]
  %32 = icmp ugt i64 %.02224.i24, 1023
  br i1 %32, label %33, label %35

33:                                               ; preds = %.lr.ph.i21
  %34 = tail call i64 @hash_bytes_extended(ptr noundef %29, i32 noundef 1024, i64 noundef 0) #9
  store i64 %34, ptr %29, align 1
  br label %35

35:                                               ; preds = %33, %.lr.ph.i21
  %.1.i25 = phi i64 [ 8, %33 ], [ %.02224.i24, %.lr.ph.i21 ]
  %36 = sub nuw nsw i64 1024, %.1.i25
  %37 = tail call i64 @llvm.umin.i64(i64 %.02125.i23, i64 %36)
  %38 = getelementptr inbounds nuw i8, ptr %29, i64 %.1.i25
  tail call void @llvm.memcpy.p0.p0.i64(ptr noundef nonnull align 1 dereferenceable(1) %38, ptr noundef nonnull align 1 dereferenceable(1) %.026.i22, i64 %37, i1 false)
  %39 = add nuw nsw i64 %37, %.1.i25
  %40 = getelementptr inbounds nuw i8, ptr %.026.i22, i64 %37
  %41 = sub i64 %.02125.i23, %37
  %.not.i26 = icmp eq i64 %41, 0
  br i1 %.not.i26, label %AppendJumble.exit28, label %.lr.ph.i21, !llvm.loop !7

AppendJumble.exit28:                              ; preds = %35
  store i64 %39, ptr %30, align 8
  %42 = getelementptr inbounds nuw i8, ptr %1, i64 48
  %43 = load ptr, ptr %42, align 8
  %.not20 = icmp eq ptr %43, null
  %.pre52 = load ptr, ptr %0, align 8
  br i1 %.not20, label %57, label %44

44:                                               ; preds = %AppendJumble.exit28
  %45 = tail call i64 @strlen(ptr noundef nonnull dereferenceable(1) %43) #8
  %46 = add i64 %45, 1
  %.not23.i29 = icmp eq i64 %46, 0
  br i1 %.not23.i29, label %AppendJumble.exit37, label %.lr.ph.i30

.lr.ph.i30:                                       ; preds = %44, %50
  %.026.i31 = phi ptr [ %55, %50 ], [ %43, %44 ]
  %.02125.i32 = phi i64 [ %56, %50 ], [ %46, %44 ]
  %.02224.i33 = phi i64 [ %54, %50 ], [ %39, %44 ]
  %47 = icmp ugt i64 %.02224.i33, 1023
  br i1 %47, label %48, label %50

48:                                               ; preds = %.lr.ph.i30
  %49 = tail call i64 @hash_bytes_extended(ptr noundef %.pre52, i32 noundef 1024, i64 noundef 0) #9
  store i64 %49, ptr %.pre52, align 1
  br label %50

50:                                               ; preds = %48, %.lr.ph.i30
  %.1.i34 = phi i64 [ 8, %48 ], [ %.02224.i33, %.lr.ph.i30 ]
  %51 = sub nuw nsw i64 1024, %.1.i34
  %52 = tail call i64 @llvm.umin.i64(i64 %.02125.i32, i64 %51)
  %53 = getelementptr inbounds nuw i8, ptr %.pre52, i64 %.1.i34
  tail call void @llvm.memcpy.p0.p0.i64(ptr noundef nonnull align 1 dereferenceable(1) %53, ptr noundef nonnull align 1 dereferenceable(1) %.026.i31, i64 %52, i1 false)
  %54 = add nuw nsw i64 %52, %.1.i34
  %55 = getelementptr inbounds nuw i8, ptr %.026.i31, i64 %52
  %56 = sub i64 %.02125.i32, %52
  %.not.i35 = icmp eq i64 %56, 0
  br i1 %.not.i35, label %AppendJumble.exit37.loopexit, label %.lr.ph.i30, !llvm.loop !7

AppendJumble.exit37.loopexit:                     ; preds = %50
  %.pre.pre = load ptr, ptr %0, align 8
  br label %AppendJumble.exit37

AppendJumble.exit37:                              ; preds = %AppendJumble.exit37.loopexit, %44
  %.pre = phi ptr [ %.pre52, %44 ], [ %.pre.pre, %AppendJumble.exit37.loopexit ]
  %.022.lcssa.i36 = phi i64 [ %39, %44 ], [ %54, %AppendJumble.exit37.loopexit ]
  store i64 %.022.lcssa.i36, ptr %30, align 8
  br label %57

57:                                               ; preds = %AppendJumble.exit37, %AppendJumble.exit28
  %58 = phi i64 [ %.022.lcssa.i36, %AppendJumble.exit37 ], [ %39, %AppendJumble.exit28 ]
  %59 = phi ptr [ %.pre, %AppendJumble.exit37 ], [ %.pre52, %AppendJumble.exit28 ]
  %60 = getelementptr inbounds nuw i8, ptr %1, i64 64
  br label %.lr.ph.i38

.lr.ph.i38:                                       ; preds = %64, %57
  %.026.i39 = phi ptr [ %69, %64 ], [ %60, %57 ]
  %.02125.i40 = phi i64 [ %70, %64 ], [ 1, %57 ]
  %.02224.i41 = phi i64 [ %68, %64 ], [ %58, %57 ]
  %61 = icmp ugt i64 %.02224.i41, 1023
  br i1 %61, label %62, label %64

62:                                               ; preds = %.lr.ph.i38
  %63 = tail call i64 @hash_bytes_extended(ptr noundef %59, i32 noundef 1024, i64 noundef 0) #9
  store i64 %63, ptr %59, align 1
  br label %64

64:                                               ; preds = %62, %.lr.ph.i38
  %.1.i42 = phi i64 [ 8, %62 ], [ %.02224.i41, %.lr.ph.i38 ]
  %65 = sub nuw nsw i64 1024, %.1.i42
  %66 = tail call i64 @llvm.umin.i64(i64 %.02125.i40, i64 %65)
  %67 = getelementptr inbounds nuw i8, ptr %59, i64 %.1.i42
  tail call void @llvm.memcpy.p0.p0.i64(ptr noundef nonnull align 1 dereferenceable(1) %67, ptr noundef nonnull align 1 dereferenceable(1) %.026.i39, i64 %66, i1 false)
  %68 = add nuw nsw i64 %66, %.1.i42
  %69 = getelementptr inbounds nuw i8, ptr %.026.i39, i64 %66
  %70 = sub i64 %.02125.i40, %66
  %.not.i43 = icmp eq i64 %70, 0
  br i1 %.not.i43, label %AppendJumble.exit45, label %.lr.ph.i38, !llvm.loop !7

AppendJumble.exit45:                              ; preds = %64
  store i64 %68, ptr %30, align 8
  ret void
}